; ModuleID = '44/1289.c'
source_filename = "44/1289.c"
target datalayout = "e-m:e-p270:32:32-p271:32:32-p272:64:64-i64:64-f80:128-n8:16:32:64-S128"
target triple = "x86_64-pc-linux-gnu"

@.str = private unnamed_addr constant [3 x i8] c"%d\00", align 1
@.str.1 = private unnamed_addr constant [4 x i8] c"%d\0A\00", align 1

; Function Attrs: noinline nounwind uwtable
define dso_local i32 @reverse(i32 %0) #0 {
  %2 = alloca i32, align 4
  %3 = alloca i32, align 4
  %4 = alloca i32, align 4
  %5 = alloca i32, align 4
  store i32 %0, i32* %3, align 4
  store i32 0, i32* %5, align 4
  %6 = load i32, i32* %3, align 4
  %7 = icmp sgt i32 %6, 0
  br i1 %7, label %8, label %23

8:                                                ; preds = %1
  br label %9

9:                                                ; preds = %12, %8
  %10 = load i32, i32* %3, align 4
  %11 = icmp sgt i32 %10, 0
  br i1 %11, label %12, label %21

12:                                               ; preds = %9
  %13 = load i32, i32* %3, align 4
  %14 = srem i32 %13, 10
  store i32 %14, i32* %4, align 4
  %15 = load i32, i32* %3, align 4
  %16 = sdiv i32 %15, 10
  store i32 %16, i32* %3, align 4
  %17 = load i32, i32* %5, align 4
  %18 = mul nsw i32 %17, 10
  %19 = load i32, i32* %4, align 4
  %20 = add nsw i32 %18, %19
  store i32 %20, i32* %5, align 4
  br label %9

21:                                               ; preds = %9
  %22 = load i32, i32* %5, align 4
  store i32 %22, i32* %2, align 4
  br label %52

23:                                               ; preds = %1
  %24 = load i32, i32* %3, align 4
  %25 = icmp slt i32 %24, 0
  br i1 %25, label %26, label %44

26:                                               ; preds = %23
  %27 = load i32, i32* %3, align 4
  %28 = sub nsw i32 0, %27
  store i32 %28, i32* %3, align 4
  br label %29

29:                                               ; preds = %32, %26
  %30 = load i32, i32* %3, align 4
  %31 = icmp sgt i32 %30, 0
  br i1 %31, label %32, label %41

32:                                               ; preds = %29
  %33 = load i32, i32* %3, align 4
  %34 = srem i32 %33, 10
  store i32 %34, i32* %4, align 4
  %35 = load i32, i32* %3, align 4
  %36 = sdiv i32 %35, 10
  store i32 %36, i32* %3, align 4
  %37 = load i32, i32* %5, align 4
  %38 = mul nsw i32 %37, 10
  %39 = load i32, i32* %4, align 4
  %40 = add nsw i32 %38, %39
  store i32 %40, i32* %5, align 4
  br label %29

41:                                               ; preds = %29
  %42 = load i32, i32* %5, align 4
  %43 = sub nsw i32 0, %42
  store i32 %43, i32* %2, align 4
  br label %52

44:                                               ; preds = %23
  %45 = load i32, i32* %3, align 4
  %46 = icmp eq i32 %45, 0
  br i1 %46, label %47, label %50

47:                                               ; preds = %44
  %48 = load i32, i32* %3, align 4
  store i32 %48, i32* %5, align 4
  %49 = load i32, i32* %5, align 4
  store i32 %49, i32* %2, align 4
  br label %52

50:                                               ; preds = %44
  br label %51

51:                                               ; preds = %50
  br label %52

52:                                               ; preds = %21, %41, %47, %51
  %53 = load i32, i32* %2, align 4
  ret i32 %53
}

; Function Attrs: noinline nounwind uwtable
define dso_local i32 @main() #0 {
  %1 = alloca i32, align 4
  %2 = alloca i32, align 4
  %3 = alloca i32, align 4
  %4 = alloca i32, align 4
  store i32 0, i32* %1, align 4
  store i32 0, i32* %3, align 4
  br label %5

5:                                                ; preds = %14, %0
  %6 = load i32, i32* %3, align 4
  %7 = icmp sle i32 %6, 5
  br i1 %7, label %8, label %17

8:                                                ; preds = %5
  %9 = call i32 (i8*, ...) @__isoc99_scanf(i8* getelementptr inbounds ([3 x i8], [3 x i8]* @.str, i64 0, i64 0), i32* %4)
  %10 = load i32, i32* %4, align 4
  %11 = call i32 @reverse(i32 %10)
  store i32 %11, i32* %2, align 4
  %12 = load i32, i32* %2, align 4
  %13 = call i32 (i8*, ...) @printf(i8* getelementptr inbounds ([4 x i8], [4 x i8]* @.str.1, i64 0, i64 0), i32 %12)
  br label %14

14:                                               ; preds = %8
  %15 = load i32, i32* %3, align 4
  %16 = add nsw i32 %15, 1
  store i32 %16, i32* %3, align 4
  br label %5

17:                                               ; preds = %5
  %18 = load i32, i32* %1, align 4
  ret i32 %18
}

declare dso_local i32 @__isoc99_scanf(i8*, ...) #1

declare dso_local i32 @printf(i8*, ...) #1


!llvm.module.flags = !{!0}
!llvm.ident = !{!1}

!0 = !{i32 1, !"wchar_size", i32 4}
!1 = !{!"clang version 10.0.0-4ubuntu1 "}
